target datalayout = "e-m:e-p270:32:32-p271:32:32-p272:64:64-i64:64-i128:128-f80:128-n8:16:32:64-S128"
target triple = "x86_64-pc-linux-gnu"

@.str.19 = private unnamed_addr constant [2 x i8] c"\0A\00", align 1
@.str.20 = private unnamed_addr constant [4 x i8] c"%*s\00", align 1
@.str.21 = private unnamed_addr constant [1 x i8] zeroinitializer, align 1

; Function Attrs: inlinehint nounwind uwtable
define internal ptr @ossl_check_const_GENERAL_NAME_sk_type(ptr noundef %0) #4 {
  %2 = alloca ptr, align 8
  store ptr %0, ptr %2, align 8, !tbaa !40
  %3 = load ptr, ptr %2, align 8, !tbaa !40
  ret ptr %3
}

; Function Attrs: nounwind uwtable
define i32 @OSSL_GENERAL_NAMES_print(ptr noundef %0, ptr noundef %1, i32 noundef %2) #0 {
  %4 = alloca ptr, align 8
  %5 = alloca ptr, align 8
  %6 = alloca i32, align 4
  %7 = alloca i32, align 4
  store ptr %0, ptr %4, align 8, !tbaa !88
  store ptr %1, ptr %5, align 8, !tbaa !40
  store i32 %2, ptr %6, align 4, !tbaa !15
  call void @llvm.lifetime.start.p0(i64 4, ptr %7) #8
  store i32 0, ptr %7, align 4, !tbaa !15
  br label %8

8:                                                ; preds = %31, %3
  %9 = load i32, ptr %7, align 4, !tbaa !15
  %10 = load ptr, ptr %5, align 8, !tbaa !40
  %11 = call ptr @ossl_check_const_GENERAL_NAME_sk_type(ptr noundef %10)
  %12 = call i32 @OPENSSL_sk_num(ptr noundef %11)
  %13 = icmp slt i32 %9, %12
  br i1 %13, label %14, label %34

14:                                               ; preds = %8
  %15 = load i32, ptr %7, align 4, !tbaa !15
  %16 = icmp sgt i32 %15, 0
  br i1 %16, label %17, label %20

17:                                               ; preds = %14
  %18 = load ptr, ptr %4, align 8, !tbaa !88
  %19 = call i32 @BIO_puts(ptr noundef %18, ptr noundef @.str.19)
  br label %20

20:                                               ; preds = %17, %14
  %21 = load ptr, ptr %4, align 8, !tbaa !88
  %22 = load i32, ptr %6, align 4, !tbaa !15
  %23 = add nsw i32 %22, 2
  %24 = call i32 (ptr, ptr, ...) @BIO_printf(ptr noundef %21, ptr noundef @.str.20, i32 noundef %23, ptr noundef @.str.21)
  %25 = load ptr, ptr %4, align 8, !tbaa !88
  %26 = load ptr, ptr %5, align 8, !tbaa !40
  %27 = call ptr @ossl_check_const_GENERAL_NAME_sk_type(ptr noundef %26)
  %28 = load i32, ptr %7, align 4, !tbaa !15
  %29 = call ptr @OPENSSL_sk_value(ptr noundef %27, i32 noundef %28)
  %30 = call i32 @GENERAL_NAME_print(ptr noundef %25, ptr noundef %29)
  br label %31

31:                                               ; preds = %20
  %32 = load i32, ptr %7, align 4, !tbaa !15
  %33 = add nsw i32 %32, 1
  store i32 %33, ptr %7, align 4, !tbaa !15
  br label %8, !llvm.loop !90

34:                                               ; preds = %8
  call void @llvm.lifetime.end.p0(i64 4, ptr %7) #8
  ret i32 1
}