; Function Attrs: nounwind uwtable
define noundef i32 @OSSL_GENERAL_NAMES_print(ptr noundef %0, ptr noundef %1, i32 noundef %2) local_unnamed_addr #0 {
  %4 = tail call i32 @OPENSSL_sk_num(ptr noundef %1) #12
  %5 = icmp sgt i32 %4, 0
  br i1 %5, label %.lr.ph, label %._crit_edge

.lr.ph:                                           ; preds = %3
  %6 = add nsw i32 %2, 2
  br label %7

7:                                                ; preds = %.lr.ph, %10
  %.09 = phi i32 [ 0, %.lr.ph ], [ %14, %10 ]
  %.not = icmp eq i32 %.09, 0
  br i1 %.not, label %10, label %8

8:                                                ; preds = %7
  %9 = tail call i32 @BIO_puts(ptr noundef %0, ptr noundef nonnull @.str.19) #12
  br label %10

10:                                               ; preds = %8, %7
  %11 = tail call i32 (ptr, ptr, ...) @BIO_printf(ptr noundef %0, ptr noundef nonnull @.str.20, i32 noundef %6, ptr noundef nonnull @.str.21) #12
  %12 = tail call ptr @OPENSSL_sk_value(ptr noundef %1, i32 noundef %.09) #12
  %13 = tail call i32 @GENERAL_NAME_print(ptr noundef %0, ptr noundef %12) #12
  %14 = add nuw nsw i32 %.09, 1
  %15 = tail call i32 @OPENSSL_sk_num(ptr noundef %1) #12
  %16 = icmp slt i32 %14, %15
  br i1 %16, label %7, label %._crit_edge, !llvm.loop !58

._crit_edge:                                      ; preds = %10, %3
  ret i32 1
}